; Function Attrs: mustprogress nofree norecurse nosync nounwind willreturn memory(argmem: readwrite) uwtable
define hidden void @timelib_isodate_from_date(i64 noundef %0, i64 noundef %1, i64 noundef %2, ptr noundef captures(none) initializes((0, 8)) %3, ptr noundef writeonly captures(none) %4, ptr noundef writeonly captures(none) initializes((0, 8)) %5) local_unnamed_addr #1 {
  tail call void @timelib_isoweek_from_date(i64 noundef %0, i64 noundef %1, i64 noundef %2, ptr noundef %4, ptr noundef %3)
  %7 = srem i64 %0, 400
  %8 = srem i64 %0, 100
  %9 = and i64 %0, 3
  %10 = icmp eq i64 %9, 0
  br i1 %10, label %11, label %13

11:                                               ; preds = %6
  %.not.i = icmp ne i64 %8, 0
  %12 = icmp eq i64 %7, 0
  %or.cond.i = or i1 %.not.i, %12
  br i1 %or.cond.i, label %timelib_day_of_week_ex.exit, label %13

13:                                               ; preds = %11, %6
  br label %timelib_day_of_week_ex.exit

timelib_day_of_week_ex.exit:                      ; preds = %11, %13
  %m_table_leap.pn.i = phi ptr [ @m_table_common, %13 ], [ @m_table_leap, %11 ]
  %14 = icmp slt i64 %8, 0
  %15 = select i1 %14, i64 100, i64 0
  %spec.select.i17.i = add nsw i64 %15, %8
  %16 = icmp slt i64 %7, 0
  %17 = select i1 %16, i64 400, i64 0
  %spec.select.i.i = add nsw i64 %17, %7
  %.lhs.trunc.i = trunc nsw i64 %spec.select.i.i to i16
  %18 = udiv i16 %.lhs.trunc.i, 100
  %19 = shl nuw nsw i16 %18, 1
  %20 = zext nneg i16 %19 to i64
  %.in.i = getelementptr inbounds [13 x i32], ptr %m_table_leap.pn.i, i64 0, i64 %1
  %21 = load i32, ptr %.in.i, align 4, !tbaa !4
  %22 = sext i32 %21 to i64
  %23 = lshr i64 %spec.select.i17.i, 2
  %reass.sub.i = add i64 %2, 6
  %24 = add i64 %reass.sub.i, %spec.select.i17.i
  %25 = add i64 %24, %23
  %26 = sub i64 %25, %20
  %27 = add i64 %26, %22
  %28 = srem i64 %27, 7
  %29 = icmp slt i64 %28, 0
  %30 = select i1 %29, i64 7, i64 0
  %spec.select.i18.i = add nsw i64 %30, %28
  %31 = icmp eq i64 %spec.select.i18.i, 0
  %spec.store.select.i = select i1 %31, i64 7, i64 %spec.select.i18.i
  store i64 %spec.store.select.i, ptr %5, align 8, !tbaa !8
  ret void
}